target datalayout = "e-m:e-p270:32:32-p271:32:32-p272:64:64-i64:64-i128:128-f80:128-n8:16:32:64-S128"
target triple = "x86_64-pc-linux-gnu"

%class.goal2sat = type <{ ptr, i32, [4 x i8] }>

; Function Attrs: mustprogress uwtable
define linkonce_odr hidden void @_ZN8goal2sat3imp9user_pushEv(ptr noundef nonnull align 8 dereferenceable(300) %0) #5 comdat align 2 {
  %2 = alloca ptr, align 8
  store ptr %0, ptr %2, align 8, !tbaa !15
  %3 = load ptr, ptr %2, align 8
  %4 = load ptr, ptr %3, align 8, !tbaa !16
  %5 = getelementptr inbounds ptr, ptr %4, i64 10
  %6 = load ptr, ptr %5, align 8
  call void %6(ptr noundef nonnull align 8 dereferenceable(300) %3)
  ret void
}

; Function Attrs: mustprogress uwtable
define hidden void @_ZN8goal2sat9user_pushEv(ptr noundef nonnull align 8 dereferenceable(12) %0) #5 align 2 {
  %2 = alloca ptr, align 8
  store ptr %0, ptr %2, align 8, !tbaa !8
  %3 = load ptr, ptr %2, align 8
  %4 = getelementptr inbounds nuw %class.goal2sat, ptr %3, i32 0, i32 0
  %5 = load ptr, ptr %4, align 8, !tbaa !10
  %6 = icmp ne ptr %5, null
  br i1 %6, label %7, label %10

7:                                                ; preds = %1
  %8 = getelementptr inbounds nuw %class.goal2sat, ptr %3, i32 0, i32 0
  %9 = load ptr, ptr %8, align 8, !tbaa !10
  call void @_ZN8goal2sat3imp9user_pushEv(ptr noundef nonnull align 8 dereferenceable(300) %9)
  br label %14

10:                                               ; preds = %1
  %11 = getelementptr inbounds nuw %class.goal2sat, ptr %3, i32 0, i32 1
  %12 = load i32, ptr %11, align 8, !tbaa !14
  %13 = add i32 %12, 1
  store i32 %13, ptr %11, align 8, !tbaa !14
  br label %14

14:                                               ; preds = %10, %7
  ret void
}