; Function Attrs: mustprogress uwtable
define hidden void @_ZN8goal2sat9user_pushEv(ptr noundef nonnull align 8 captures(none) dereferenceable(12) %0) local_unnamed_addr #8 align 2 {
  %2 = load ptr, ptr %0, align 8, !tbaa !3
  %.not = icmp eq ptr %2, null
  br i1 %.not, label %7, label %3

3:                                                ; preds = %1
  %4 = load ptr, ptr %2, align 8, !tbaa !11
  %5 = getelementptr inbounds nuw i8, ptr %4, i64 80
  %6 = load ptr, ptr %5, align 8
  tail call void %6(ptr noundef nonnull align 8 dereferenceable(300) %2)
  br label %11

7:                                                ; preds = %1
  %8 = getelementptr inbounds nuw i8, ptr %0, i64 8
  %9 = load i32, ptr %8, align 8, !tbaa !10
  %10 = add i32 %9, 1
  store i32 %10, ptr %8, align 8, !tbaa !10
  br label %11

11:                                               ; preds = %7, %3
  ret void
}